; Function Attrs: mustprogress nounwind uwtable
define hidden void @_ZN4cvc58internal6theory24InferenceManagerBuffered18clearPendingLemmasEv(ptr noundef nonnull align 8 captures(none) dereferenceable(337) %0) local_unnamed_addr #6 align 2 personality ptr @__gxx_personality_v0 {
  %2 = getelementptr inbounds nuw i8, ptr %0, i64 240
  %3 = load ptr, ptr %2, align 8, !tbaa !75
  %4 = getelementptr inbounds nuw i8, ptr %0, i64 248
  %5 = load ptr, ptr %4, align 8, !tbaa !71
  %.not.i.i = icmp eq ptr %5, %3
  br i1 %.not.i.i, label %_ZNSt6vectorISt10unique_ptrIN4cvc58internal6theory15TheoryInferenceESt14default_deleteIS4_EESaIS7_EE5clearEv.exit, label %.lr.ph.i.i.i.i.i

.lr.ph.i.i.i.i.i:                                 ; preds = %1, %_ZSt8_DestroyISt10unique_ptrIN4cvc58internal6theory15TheoryInferenceESt14default_deleteIS4_EEEvPT_.exit.i.i.i.i.i
  %.05.i.i.i.i.i = phi ptr [ %10, %_ZSt8_DestroyISt10unique_ptrIN4cvc58internal6theory15TheoryInferenceESt14default_deleteIS4_EEEvPT_.exit.i.i.i.i.i ], [ %3, %1 ]
  %6 = load ptr, ptr %.05.i.i.i.i.i, align 8, !tbaa !73
  %.not.i.i.i.i.i.i.i = icmp eq ptr %6, null
  br i1 %.not.i.i.i.i.i.i.i, label %_ZSt8_DestroyISt10unique_ptrIN4cvc58internal6theory15TheoryInferenceESt14default_deleteIS4_EEEvPT_.exit.i.i.i.i.i, label %_ZNKSt14default_deleteIN4cvc58internal6theory15TheoryInferenceEEclEPS3_.exit.i.i.i.i.i.i.i

_ZNKSt14default_deleteIN4cvc58internal6theory15TheoryInferenceEEclEPS3_.exit.i.i.i.i.i.i.i: ; preds = %.lr.ph.i.i.i.i.i
  %7 = load ptr, ptr %6, align 8, !tbaa !3
  %8 = getelementptr inbounds nuw i8, ptr %7, i64 8
  %9 = load ptr, ptr %8, align 8
  tail call void %9(ptr noundef nonnull align 8 dereferenceable(12) %6) #18
  br label %_ZSt8_DestroyISt10unique_ptrIN4cvc58internal6theory15TheoryInferenceESt14default_deleteIS4_EEEvPT_.exit.i.i.i.i.i

_ZSt8_DestroyISt10unique_ptrIN4cvc58internal6theory15TheoryInferenceESt14default_deleteIS4_EEEvPT_.exit.i.i.i.i.i: ; preds = %_ZNKSt14default_deleteIN4cvc58internal6theory15TheoryInferenceEEclEPS3_.exit.i.i.i.i.i.i.i, %.lr.ph.i.i.i.i.i
  store ptr null, ptr %.05.i.i.i.i.i, align 8, !tbaa !73
  %10 = getelementptr inbounds nuw i8, ptr %.05.i.i.i.i.i, i64 8
  %.not.i.i.i.i.i = icmp eq ptr %10, %5
  br i1 %.not.i.i.i.i.i, label %_ZSt8_DestroyIPSt10unique_ptrIN4cvc58internal6theory15TheoryInferenceESt14default_deleteIS4_EES7_EvT_S9_RSaIT0_E.exit.i.i, label %.lr.ph.i.i.i.i.i, !llvm.loop !95

_ZSt8_DestroyIPSt10unique_ptrIN4cvc58internal6theory15TheoryInferenceESt14default_deleteIS4_EES7_EvT_S9_RSaIT0_E.exit.i.i: ; preds = %_ZSt8_DestroyISt10unique_ptrIN4cvc58internal6theory15TheoryInferenceESt14default_deleteIS4_EEEvPT_.exit.i.i.i.i.i
  store ptr %3, ptr %4, align 8, !tbaa !71
  br label %_ZNSt6vectorISt10unique_ptrIN4cvc58internal6theory15TheoryInferenceESt14default_deleteIS4_EESaIS7_EE5clearEv.exit

_ZNSt6vectorISt10unique_ptrIN4cvc58internal6theory15TheoryInferenceESt14default_deleteIS4_EESaIS7_EE5clearEv.exit: ; preds = %1, %_ZSt8_DestroyIPSt10unique_ptrIN4cvc58internal6theory15TheoryInferenceESt14default_deleteIS4_EES7_EvT_S9_RSaIT0_E.exit.i.i
  ret void
}